target datalayout = "e-m:e-p270:32:32-p271:32:32-p272:64:64-i64:64-i128:128-f80:128-n8:16:32:64-S128"
target triple = "x86_64-pc-linux-gnu"

%class.Moves = type { i32, i32, i32, i32, i32, i32, i32, i32, i32, [13 x %"struct.Moves::trackType"], ptr, [13 x [4 x %struct.movePlyType]], ptr, [13 x [4 x i32]], [13 x %"class.std::__cxx11::basic_string"], [13 x [4 x %"struct.Moves::moveStatType"]], [13 x [4 x %"struct.Moves::moveStatType"]], [13 x [4 x %"struct.Moves::moveStatsType"]], [13 x [4 x %"struct.Moves::moveStatsType"]], %"struct.Moves::moveStatsType", %"struct.Moves::moveStatsType", [16 x { i64, i64 }] }
%"struct.Moves::trackType" = type { i32, i32, [4 x i32], [4 x i32], %struct.trickDataType, [4 x %struct.extCard], [4 x i32], [4 x [4 x i32]], [4 x i32] }
%struct.trickDataType = type { [4 x i32], i32, i32, i32, i32, i32 }
%struct.extCard = type { i32, i32, i32 }
%struct.movePlyType = type { [14 x %struct.moveType], i32, i32 }
%struct.moveType = type { i32, i32, i32, i32 }
%"class.std::__cxx11::basic_string" = type { %"struct.std::__cxx11::basic_string<char>::_Alloc_hider", i64, %union.anon }
%"struct.std::__cxx11::basic_string<char>::_Alloc_hider" = type { ptr }
%union.anon = type { i64, [8 x i8] }
%"struct.Moves::moveStatType" = type { i32, i32, i32, i32 }
%"struct.Moves::moveStatsType" = type { i32, [13 x %"struct.Moves::moveStatType"] }
%struct.pos = type { [4 x [4 x i16]], [4 x i16], [4 x [4 x i8]], [4 x i32], [50 x [4 x i16]], [50 x i32], [50 x %struct.moveType], i32, i32, [4 x %struct.highCardType], [4 x %struct.highCardType] }
%struct.highCardType = type { i32, i32 }

; Function Attrs: mustprogress nounwind uwtable
define void @_ZN5Moves18WeightAllocNTVoid2ERK3pos(ptr noundef nonnull align 8 dereferenceable(39992) %0, ptr noundef nonnull align 4 dereferenceable(1544) %1) #5 align 2 {
  %3 = alloca ptr, align 8
  %4 = alloca ptr, align 8
  %5 = alloca i16, align 2
  %6 = alloca i32, align 4
  %7 = alloca i32, align 4
  store ptr %0, ptr %3, align 8
  store ptr %1, ptr %4, align 8
  %8 = load ptr, ptr %3, align 8
  %9 = load ptr, ptr %4, align 8
  %10 = getelementptr inbounds nuw %struct.pos, ptr %9, i32 0, i32 2
  %11 = getelementptr inbounds nuw %class.Moves, ptr %8, i32 0, i32 2
  %12 = load i32, ptr %11, align 8
  %13 = sext i32 %12 to i64
  %14 = getelementptr inbounds [4 x [4 x i8]], ptr %10, i64 0, i64 %13
  %15 = getelementptr inbounds nuw %class.Moves, ptr %8, i32 0, i32 6
  %16 = load i32, ptr %15, align 8
  %17 = sext i32 %16 to i64
  %18 = getelementptr inbounds [4 x i8], ptr %14, i64 0, i64 %17
  %19 = load i8, ptr %18, align 1
  %20 = zext i8 %19 to i16
  store i16 %20, ptr %5, align 2
  %21 = load i16, ptr %5, align 2
  %22 = zext i16 %21 to i32
  %23 = shl i32 %22, 6
  %24 = sdiv i32 %23, 24
  store i32 %24, ptr %6, align 4
  %25 = load i16, ptr %5, align 2
  %26 = zext i16 %25 to i32
  %27 = icmp eq i32 %26, 2
  br i1 %27, label %28, label %43

28:                                               ; preds = %2
  %29 = load ptr, ptr %4, align 8
  %30 = getelementptr inbounds nuw %struct.pos, ptr %29, i32 0, i32 10
  %31 = getelementptr inbounds nuw %class.Moves, ptr %8, i32 0, i32 6
  %32 = load i32, ptr %31, align 8
  %33 = sext i32 %32 to i64
  %34 = getelementptr inbounds [4 x %struct.highCardType], ptr %30, i64 0, i64 %33
  %35 = getelementptr inbounds nuw %struct.highCardType, ptr %34, i32 0, i32 1
  %36 = load i32, ptr %35, align 4
  %37 = getelementptr inbounds nuw %class.Moves, ptr %8, i32 0, i32 2
  %38 = load i32, ptr %37, align 8
  %39 = icmp eq i32 %36, %38
  br i1 %39, label %40, label %43

40:                                               ; preds = %28
  %41 = load i32, ptr %6, align 4
  %42 = sub nsw i32 %41, 4
  store i32 %42, ptr %6, align 4
  br label %63

43:                                               ; preds = %28, %2
  %44 = load i16, ptr %5, align 2
  %45 = zext i16 %44 to i32
  %46 = icmp eq i32 %45, 1
  br i1 %46, label %47, label %62

47:                                               ; preds = %43
  %48 = load ptr, ptr %4, align 8
  %49 = getelementptr inbounds nuw %struct.pos, ptr %48, i32 0, i32 9
  %50 = getelementptr inbounds nuw %class.Moves, ptr %8, i32 0, i32 6
  %51 = load i32, ptr %50, align 8
  %52 = sext i32 %51 to i64
  %53 = getelementptr inbounds [4 x %struct.highCardType], ptr %49, i64 0, i64 %52
  %54 = getelementptr inbounds nuw %struct.highCardType, ptr %53, i32 0, i32 1
  %55 = load i32, ptr %54, align 4
  %56 = getelementptr inbounds nuw %class.Moves, ptr %8, i32 0, i32 2
  %57 = load i32, ptr %56, align 8
  %58 = icmp eq i32 %55, %57
  br i1 %58, label %59, label %62

59:                                               ; preds = %47
  %60 = load i32, ptr %6, align 4
  %61 = sub nsw i32 %60, 4
  store i32 %61, ptr %6, align 4
  br label %62

62:                                               ; preds = %59, %47, %43
  br label %63

63:                                               ; preds = %62, %40
  %64 = getelementptr inbounds nuw %class.Moves, ptr %8, i32 0, i32 8
  %65 = load i32, ptr %64, align 8
  store i32 %65, ptr %7, align 4
  br label %66

66:                                               ; preds = %88, %63
  %67 = load i32, ptr %7, align 4
  %68 = getelementptr inbounds nuw %class.Moves, ptr %8, i32 0, i32 7
  %69 = load i32, ptr %68, align 4
  %70 = icmp slt i32 %67, %69
  br i1 %70, label %71, label %91

71:                                               ; preds = %66
  %72 = getelementptr inbounds nuw %class.Moves, ptr %8, i32 0, i32 12
  %73 = load ptr, ptr %72, align 8
  %74 = load i32, ptr %7, align 4
  %75 = sext i32 %74 to i64
  %76 = getelementptr inbounds %struct.moveType, ptr %73, i64 %75
  %77 = getelementptr inbounds nuw %struct.moveType, ptr %76, i32 0, i32 1
  %78 = load i32, ptr %77, align 4
  %79 = sub nsw i32 0, %78
  %80 = load i32, ptr %6, align 4
  %81 = add nsw i32 %79, %80
  %82 = getelementptr inbounds nuw %class.Moves, ptr %8, i32 0, i32 12
  %83 = load ptr, ptr %82, align 8
  %84 = load i32, ptr %7, align 4
  %85 = sext i32 %84 to i64
  %86 = getelementptr inbounds %struct.moveType, ptr %83, i64 %85
  %87 = getelementptr inbounds nuw %struct.moveType, ptr %86, i32 0, i32 3
  store i32 %81, ptr %87, align 4
  br label %88

88:                                               ; preds = %71
  %89 = load i32, ptr %7, align 4
  %90 = add nsw i32 %89, 1
  store i32 %90, ptr %7, align 4
  br label %66, !llvm.loop !36

91:                                               ; preds = %66
  ret void
}