; Function Attrs: mustprogress nofree norecurse nosync nounwind memory(readwrite, inaccessiblemem: none) uwtable
define void @_ZN5Moves18WeightAllocNTVoid2ERK3pos(ptr nocapture noundef nonnull readonly align 8 dereferenceable(39992) %0, ptr nocapture noundef nonnull readonly align 4 dereferenceable(1544) %1) #4 align 2 {
  %3 = getelementptr inbounds nuw i8, ptr %1, i64 40
  %4 = getelementptr inbounds nuw i8, ptr %0, i64 8
  %5 = load i32, ptr %4, align 8
  %6 = sext i32 %5 to i64
  %7 = getelementptr inbounds nuw i8, ptr %0, i64 24
  %8 = load i32, ptr %7, align 8
  %9 = sext i32 %8 to i64
  %10 = getelementptr inbounds [4 x [4 x i8]], ptr %3, i64 0, i64 %6, i64 %9
  %11 = load i8, ptr %10, align 1
  %12 = zext i8 %11 to i16
  %.lhs.trunc = shl nuw nsw i16 %12, 6
  %13 = udiv i16 %.lhs.trunc, 24
  %.zext = zext nneg i16 %13 to i32
  switch i8 %11, label %26 [
    i8 2, label %14
    i8 1, label %20
  ]

14:                                               ; preds = %2
  %15 = getelementptr inbounds nuw i8, ptr %1, i64 1512
  %16 = getelementptr inbounds [4 x %struct.highCardType], ptr %15, i64 0, i64 %9, i32 1
  %17 = load i32, ptr %16, align 4
  %18 = icmp eq i32 %17, %5
  %19 = add nsw i32 %.zext, -4
  %spec.select14 = select i1 %18, i32 %19, i32 %.zext
  br label %26

20:                                               ; preds = %2
  %21 = getelementptr inbounds nuw i8, ptr %1, i64 1480
  %22 = getelementptr inbounds [4 x %struct.highCardType], ptr %21, i64 0, i64 %9, i32 1
  %23 = load i32, ptr %22, align 4
  %24 = icmp eq i32 %23, %5
  %25 = or disjoint i32 %.zext, -4
  %spec.select = select i1 %24, i32 %25, i32 %.zext
  br label %26

26:                                               ; preds = %14, %20, %2
  %.013 = phi i32 [ %.zext, %2 ], [ %spec.select, %20 ], [ %spec.select14, %14 ]
  %27 = getelementptr inbounds nuw i8, ptr %0, i64 32
  %28 = load i32, ptr %27, align 8
  %29 = getelementptr inbounds nuw i8, ptr %0, i64 28
  %30 = load i32, ptr %29, align 4
  %31 = icmp slt i32 %28, %30
  br i1 %31, label %.lr.ph, label %._crit_edge

.lr.ph:                                           ; preds = %26
  %32 = getelementptr inbounds nuw i8, ptr %0, i64 14968
  %33 = sext i32 %28 to i64
  br label %34

34:                                               ; preds = %.lr.ph, %34
  %indvars.iv = phi i64 [ %33, %.lr.ph ], [ %indvars.iv.next, %34 ]
  %35 = load ptr, ptr %32, align 8
  %36 = getelementptr inbounds %struct.moveType, ptr %35, i64 %indvars.iv
  %37 = getelementptr inbounds nuw i8, ptr %36, i64 4
  %38 = load i32, ptr %37, align 4
  %39 = sub nsw i32 %.013, %38
  %40 = getelementptr inbounds nuw i8, ptr %36, i64 12
  store i32 %39, ptr %40, align 4
  %indvars.iv.next = add nsw i64 %indvars.iv, 1
  %41 = load i32, ptr %29, align 4
  %42 = sext i32 %41 to i64
  %43 = icmp slt i64 %indvars.iv.next, %42
  br i1 %43, label %34, label %._crit_edge, !llvm.loop !41

._crit_edge:                                      ; preds = %34, %26
  ret void
}